target datalayout = "e-m:e-p270:32:32-p271:32:32-p272:64:64-i64:64-i128:128-f80:128-n8:16:32:64-S128"
target triple = "x86_64-pc-linux-gnu"

%"class.std::basic_string_view" = type { i64, ptr }

; Function Attrs: inlinehint mustprogress nounwind uwtable
define internal noundef zeroext i1 @_ZN12_GLOBAL__N_114_isIDSeparatorEc(i8 noundef signext %0) #2 {
  %2 = alloca i8, align 1
  store i8 %0, ptr %2, align 1, !tbaa !25
  %3 = load i8, ptr %2, align 1, !tbaa !25
  %4 = sext i8 %3 to i32
  %5 = icmp eq i32 %4, 95
  br i1 %5, label %10, label %6

6:                                                ; preds = %1
  %7 = load i8, ptr %2, align 1, !tbaa !25
  %8 = sext i8 %7 to i32
  %9 = icmp eq i32 %8, 45
  br label %10

10:                                               ; preds = %6, %1
  %11 = phi i1 [ true, %1 ], [ %9, %6 ]
  ret i1 %11
}

; Function Attrs: inlinehint mustprogress nounwind uwtable
define internal noundef zeroext i1 @_ZN12_GLOBAL__N_113_isTerminatorEc(i8 noundef signext %0) #2 {
  %2 = alloca i8, align 1
  store i8 %0, ptr %2, align 1, !tbaa !25
  %3 = load i8, ptr %2, align 1, !tbaa !25
  %4 = sext i8 %3 to i32
  %5 = icmp eq i32 %4, 46
  br i1 %5, label %10, label %6

6:                                                ; preds = %1
  %7 = load i8, ptr %2, align 1, !tbaa !25
  %8 = sext i8 %7 to i32
  %9 = icmp eq i32 %8, 64
  br label %10

10:                                               ; preds = %6, %1
  %11 = phi i1 [ true, %1 ], [ %9, %6 ]
  ret i1 %11
}

; Function Attrs: mustprogress nounwind uwtable
define linkonce_odr noundef nonnull align 1 dereferenceable(1) ptr @_ZNKSt17basic_string_viewIcSt11char_traitsIcEEixEm(ptr noundef nonnull align 8 dereferenceable(16) %0, i64 noundef %1) #0 comdat align 2 {
  %3 = alloca ptr, align 8
  %4 = alloca i64, align 8
  store ptr %0, ptr %3, align 8, !tbaa !23
  store i64 %1, ptr %4, align 8, !tbaa !18
  %5 = load ptr, ptr %3, align 8
  br label %6

6:                                                ; preds = %2
  br label %7

7:                                                ; preds = %6
  br label %8

8:                                                ; preds = %7
  %9 = getelementptr inbounds nuw %"class.std::basic_string_view", ptr %5, i32 0, i32 1
  %10 = load ptr, ptr %9, align 8, !tbaa !28
  %11 = load i64, ptr %4, align 8, !tbaa !18
  %12 = getelementptr inbounds nuw i8, ptr %10, i64 %11
  ret ptr %12
}

; Function Attrs: mustprogress nounwind uwtable
define linkonce_odr noundef i64 @_ZNKSt17basic_string_viewIcSt11char_traitsIcEE4sizeEv(ptr noundef nonnull align 8 dereferenceable(16) %0) #0 comdat align 2 {
  %2 = alloca ptr, align 8
  store ptr %0, ptr %2, align 8, !tbaa !23
  %3 = load ptr, ptr %2, align 8
  %4 = getelementptr inbounds nuw %"class.std::basic_string_view", ptr %3, i32 0, i32 0
  %5 = load i64, ptr %4, align 8, !tbaa !26
  ret i64 %5
}

; Function Attrs: mustprogress uwtable
define internal noundef i64 @_ZN12_GLOBAL__N_110_getScriptESt17basic_string_viewIcSt11char_traitsIcEEPN6icu_778ByteSinkE(i64 %0, ptr %1, ptr noundef %2) #1 {
  %4 = alloca i64, align 8
  %5 = alloca %"class.std::basic_string_view", align 8
  %6 = alloca ptr, align 8
  %7 = alloca i32, align 4
  %8 = alloca i64, align 8
  %9 = alloca i32, align 4
  %10 = alloca [4 x i8], align 1
  %11 = alloca i32, align 4
  %12 = alloca ptr, align 8
  %13 = alloca i32, align 4
  %14 = getelementptr inbounds nuw { i64, ptr }, ptr %5, i32 0, i32 0
  store i64 %0, ptr %14, align 8
  %15 = getelementptr inbounds nuw { i64, ptr }, ptr %5, i32 0, i32 1
  store ptr %1, ptr %15, align 8
  store ptr %2, ptr %6, align 8, !tbaa !33
  call void @llvm.lifetime.start.p0(i64 4, ptr %7) #11
  store i32 4, ptr %7, align 4, !tbaa !14
  call void @llvm.lifetime.start.p0(i64 8, ptr %8) #11
  store i64 0, ptr %8, align 8, !tbaa !18
  br label %16

16:                                               ; preds = %42, %3
  %17 = load i64, ptr %8, align 8, !tbaa !18
  %18 = call noundef i64 @_ZNKSt17basic_string_viewIcSt11char_traitsIcEE4sizeEv(ptr noundef nonnull align 8 dereferenceable(16) %5) #11
  %19 = icmp ult i64 %17, %18
  br i1 %19, label %20, label %36

20:                                               ; preds = %16
  %21 = load i64, ptr %8, align 8, !tbaa !18
  %22 = call noundef nonnull align 1 dereferenceable(1) ptr @_ZNKSt17basic_string_viewIcSt11char_traitsIcEEixEm(ptr noundef nonnull align 8 dereferenceable(16) %5, i64 noundef %21) #11
  %23 = load i8, ptr %22, align 1, !tbaa !25
  %24 = call noundef zeroext i1 @_ZN12_GLOBAL__N_113_isTerminatorEc(i8 noundef signext %23)
  br i1 %24, label %36, label %25

25:                                               ; preds = %20
  %26 = load i64, ptr %8, align 8, !tbaa !18
  %27 = call noundef nonnull align 1 dereferenceable(1) ptr @_ZNKSt17basic_string_viewIcSt11char_traitsIcEEixEm(ptr noundef nonnull align 8 dereferenceable(16) %5, i64 noundef %26) #11
  %28 = load i8, ptr %27, align 1, !tbaa !25
  %29 = call noundef zeroext i1 @_ZN12_GLOBAL__N_114_isIDSeparatorEc(i8 noundef signext %28)
  br i1 %29, label %36, label %30

30:                                               ; preds = %25
  %31 = load i64, ptr %8, align 8, !tbaa !18
  %32 = call noundef nonnull align 1 dereferenceable(1) ptr @_ZNKSt17basic_string_viewIcSt11char_traitsIcEEixEm(ptr noundef nonnull align 8 dereferenceable(16) %5, i64 noundef %31) #11
  %33 = load i8, ptr %32, align 1, !tbaa !25
  %34 = call signext i8 @uprv_isASCIILetter_77(i8 noundef signext %33)
  %35 = icmp ne i8 %34, 0
  br label %36

36:                                               ; preds = %30, %25, %20, %16
  %37 = phi i1 [ false, %25 ], [ false, %20 ], [ false, %16 ], [ %35, %30 ]
  br i1 %37, label %38, label %45

38:                                               ; preds = %36
  %39 = load i64, ptr %8, align 8, !tbaa !18
  %40 = icmp eq i64 %39, 4
  br i1 %40, label %41, label %42

41:                                               ; preds = %38
  store i64 0, ptr %4, align 8
  store i32 1, ptr %9, align 4
  br label %90

42:                                               ; preds = %38
  %43 = load i64, ptr %8, align 8, !tbaa !18
  %44 = add i64 %43, 1
  store i64 %44, ptr %8, align 8, !tbaa !18
  br label %16, !llvm.loop !89

45:                                               ; preds = %36
  %46 = load i64, ptr %8, align 8, !tbaa !18
  %47 = icmp ne i64 %46, 4
  br i1 %47, label %48, label %49

48:                                               ; preds = %45
  store i64 0, ptr %4, align 8
  store i32 1, ptr %9, align 4
  br label %90

49:                                               ; preds = %45
  %50 = load ptr, ptr %6, align 8, !tbaa !33
  %51 = icmp eq ptr %50, null
  br i1 %51, label %52, label %54

52:                                               ; preds = %49
  %53 = load i64, ptr %8, align 8, !tbaa !18
  store i64 %53, ptr %4, align 8
  store i32 1, ptr %9, align 4
  br label %90

54:                                               ; preds = %49
  call void @llvm.lifetime.start.p0(i64 4, ptr %10) #11
  call void @llvm.lifetime.start.p0(i64 4, ptr %11) #11
  store i32 0, ptr %11, align 4, !tbaa !14
  call void @llvm.lifetime.start.p0(i64 8, ptr %12) #11
  %55 = load ptr, ptr %6, align 8, !tbaa !33
  %56 = getelementptr inbounds [4 x i8], ptr %10, i64 0, i64 0
  %57 = load ptr, ptr %55, align 8, !tbaa !48
  %58 = getelementptr inbounds ptr, ptr %57, i64 3
  %59 = load ptr, ptr %58, align 8
  %60 = call noundef ptr %59(ptr noundef nonnull align 8 dereferenceable(8) %55, i32 noundef 4, i32 noundef 4, ptr noundef %56, i32 noundef 4, ptr noundef %11)
  store ptr %60, ptr %12, align 8, !tbaa !17
  %61 = call noundef nonnull align 1 dereferenceable(1) ptr @_ZNKSt17basic_string_viewIcSt11char_traitsIcEEixEm(ptr noundef nonnull align 8 dereferenceable(16) %5, i64 noundef 0) #11
  %62 = load i8, ptr %61, align 1, !tbaa !25
  %63 = call signext i8 @uprv_toupper_77(i8 noundef signext %62)
  %64 = load ptr, ptr %12, align 8, !tbaa !17
  %65 = getelementptr inbounds i8, ptr %64, i64 0
  store i8 %63, ptr %65, align 1, !tbaa !25
  call void @llvm.lifetime.start.p0(i64 4, ptr %13) #11
  store i32 1, ptr %13, align 4, !tbaa !14
  br label %66

66:                                               ; preds = %80, %54
  %67 = load i32, ptr %13, align 4, !tbaa !14
  %68 = icmp slt i32 %67, 4
  br i1 %68, label %70, label %69

69:                                               ; preds = %66
  store i32 4, ptr %9, align 4
  call void @llvm.lifetime.end.p0(i64 4, ptr %13) #11
  br label %83

70:                                               ; preds = %66
  %71 = load i32, ptr %13, align 4, !tbaa !14
  %72 = sext i32 %71 to i64
  %73 = call noundef nonnull align 1 dereferenceable(1) ptr @_ZNKSt17basic_string_viewIcSt11char_traitsIcEEixEm(ptr noundef nonnull align 8 dereferenceable(16) %5, i64 noundef %72) #11
  %74 = load i8, ptr %73, align 1, !tbaa !25
  %75 = call signext i8 @uprv_asciitolower_77(i8 noundef signext %74)
  %76 = load ptr, ptr %12, align 8, !tbaa !17
  %77 = load i32, ptr %13, align 4, !tbaa !14
  %78 = sext i32 %77 to i64
  %79 = getelementptr inbounds i8, ptr %76, i64 %78
  store i8 %75, ptr %79, align 1, !tbaa !25
  br label %80

80:                                               ; preds = %70
  %81 = load i32, ptr %13, align 4, !tbaa !14
  %82 = add nsw i32 %81, 1
  store i32 %82, ptr %13, align 4, !tbaa !14
  br label %66, !llvm.loop !90

83:                                               ; preds = %69
  %84 = load ptr, ptr %6, align 8, !tbaa !33
  %85 = load ptr, ptr %12, align 8, !tbaa !17
  %86 = load ptr, ptr %84, align 8, !tbaa !48
  %87 = getelementptr inbounds ptr, ptr %86, i64 2
  %88 = load ptr, ptr %87, align 8
  call void %88(ptr noundef nonnull align 8 dereferenceable(8) %84, ptr noundef %85, i32 noundef 4)
  %89 = load i64, ptr %8, align 8, !tbaa !18
  store i64 %89, ptr %4, align 8
  store i32 1, ptr %9, align 4
  call void @llvm.lifetime.end.p0(i64 8, ptr %12) #11
  call void @llvm.lifetime.end.p0(i64 4, ptr %11) #11
  call void @llvm.lifetime.end.p0(i64 4, ptr %10) #11
  br label %90

90:                                               ; preds = %83, %52, %48, %41
  call void @llvm.lifetime.end.p0(i64 8, ptr %8) #11
  call void @llvm.lifetime.end.p0(i64 4, ptr %7) #11
  %91 = load i64, ptr %4, align 8
  ret i64 %91
}