; Function Attrs: mustprogress uwtable
define internal fastcc noundef range(i64 0, 5) i64 @_ZN12_GLOBAL__N_110_getScriptESt17basic_string_viewIcSt11char_traitsIcEEPN6icu_778ByteSinkE(i64 %0, ptr readonly captures(none) %1, ptr noundef %2) unnamed_addr #1 {
  %4 = alloca [4 x i8], align 1
  %5 = alloca i32, align 4
  %.not40 = icmp eq i64 %0, 0
  br i1 %.not40, label %.loopexit, label %.lr.ph

.lr.ph:                                           ; preds = %3, %12
  %.02028 = phi i64 [ %13, %12 ], [ 0, %3 ]
  %6 = getelementptr inbounds nuw i8, ptr %1, i64 %.02028
  %7 = load i8, ptr %6, align 1, !tbaa !20
  switch i8 %7, label %8 [
    i8 64, label %.critedge
    i8 46, label %.critedge
    i8 95, label %.critedge
    i8 45, label %.critedge
  ]

8:                                                ; preds = %.lr.ph
  %9 = tail call signext i8 @uprv_isASCIILetter_77(i8 noundef signext %7)
  %.not = icmp eq i8 %9, 0
  br i1 %.not, label %.critedge, label %10

10:                                               ; preds = %8
  %11 = icmp eq i64 %.02028, 4
  br i1 %11, label %.loopexit, label %12

12:                                               ; preds = %10
  %13 = add nuw nsw i64 %.02028, 1
  %exitcond.not = icmp eq i64 %13, %0
  br i1 %exitcond.not, label %.critedge, label %.lr.ph, !llvm.loop !79

.critedge:                                        ; preds = %8, %12, %.lr.ph, %.lr.ph, %.lr.ph, %.lr.ph
  %.020.lcssa.ph = phi i64 [ %.02028, %8 ], [ %0, %12 ], [ %.02028, %.lr.ph ], [ %.02028, %.lr.ph ], [ %.02028, %.lr.ph ], [ %.02028, %.lr.ph ]
  %14 = icmp eq i64 %.020.lcssa.ph, 4
  br i1 %14, label %15, label %.loopexit

15:                                               ; preds = %.critedge
  %16 = icmp eq ptr %2, null
  br i1 %16, label %.loopexit, label %17

17:                                               ; preds = %15
  call void @llvm.lifetime.start.p0(i64 4, ptr nonnull %4) #20
  call void @llvm.lifetime.start.p0(i64 4, ptr nonnull %5) #20
  store i32 0, ptr %5, align 4, !tbaa !12
  %18 = load ptr, ptr %2, align 8, !tbaa !32
  %19 = getelementptr inbounds nuw i8, ptr %18, i64 24
  %20 = load ptr, ptr %19, align 8
  %21 = call noundef ptr %20(ptr noundef nonnull align 8 dereferenceable(8) %2, i32 noundef 4, i32 noundef 4, ptr noundef nonnull %4, i32 noundef 4, ptr noundef nonnull %5)
  %22 = load i8, ptr %1, align 1, !tbaa !20
  %23 = call signext i8 @uprv_toupper_77(i8 noundef signext %22)
  store i8 %23, ptr %21, align 1, !tbaa !20
  br label %28

24:                                               ; preds = %28
  %25 = load ptr, ptr %2, align 8, !tbaa !32
  %26 = getelementptr inbounds nuw i8, ptr %25, i64 16
  %27 = load ptr, ptr %26, align 8
  call void %27(ptr noundef nonnull align 8 dereferenceable(8) %2, ptr noundef nonnull %21, i32 noundef 4)
  call void @llvm.lifetime.end.p0(i64 4, ptr nonnull %5) #20
  call void @llvm.lifetime.end.p0(i64 4, ptr nonnull %4) #20
  br label %.loopexit

28:                                               ; preds = %17, %28
  %indvars.iv = phi i64 [ 1, %17 ], [ %indvars.iv.next, %28 ]
  %29 = getelementptr inbounds nuw i8, ptr %1, i64 %indvars.iv
  %30 = load i8, ptr %29, align 1, !tbaa !20
  %31 = call signext i8 @uprv_asciitolower_77(i8 noundef signext %30)
  %32 = getelementptr inbounds nuw i8, ptr %21, i64 %indvars.iv
  store i8 %31, ptr %32, align 1, !tbaa !20
  %indvars.iv.next = add nuw nsw i64 %indvars.iv, 1
  %exitcond42.not = icmp eq i64 %indvars.iv.next, 4
  br i1 %exitcond42.not, label %24, label %28, !llvm.loop !80

.loopexit:                                        ; preds = %10, %3, %15, %.critedge, %24
  %.019 = phi i64 [ 4, %24 ], [ 0, %.critedge ], [ 4, %15 ], [ 0, %3 ], [ 0, %10 ]
  ret i64 %.019
}